target datalayout = "e-m:e-p270:32:32-p271:32:32-p272:64:64-i64:64-i128:128-f80:128-n8:16:32:64-S128"
target triple = "x86_64-pc-linux-gnu"

%"struct.gmx::SearchCycleCounting" = type { i8, i32, [3 x %"class.gmx::nbnxn_cycle_t"] }
%"class.gmx::nbnxn_cycle_t" = type { i32, i64, i64 }
%"class.std::vector" = type { %"struct.std::_Vector_base" }
%"struct.std::_Vector_base" = type { %"struct.std::_Vector_base<int, std::allocator<int>>::_Vector_impl" }
%"struct.std::_Vector_base<int, std::allocator<int>>::_Vector_impl" = type { %"struct.std::_Vector_base<int, std::allocator<int>>::_Vector_impl_data" }
%"struct.std::_Vector_base<int, std::allocator<int>>::_Vector_impl_data" = type { ptr, ptr, ptr }
%"class.std::allocator.31" = type { i8 }
%"class.gmx::PairSearch" = type { %"class.gmx::GridSet", %"class.std::vector.29", %"struct.gmx::SearchCycleCounting" }
%"class.gmx::GridSet" = type { %"struct.gmx::GridSet::DomainSetup", %"class.std::vector.17", i32, %"struct.gmx::GridSetData", i32, i8, i8, i32, [3 x [3 x float]], i32, i32, %"class.std::vector.24", i32, %"class.std::vector" }
%"struct.gmx::GridSet::DomainSetup" = type { i32, i8, i8, %"struct.std::array", ptr }
%"struct.std::array" = type { [3 x i8] }
%"class.std::vector.17" = type { %"struct.std::_Vector_base.18" }
%"struct.std::_Vector_base.18" = type { %"struct.std::_Vector_base<gmx::Grid, std::allocator<gmx::Grid>>::_Vector_impl" }
%"struct.std::_Vector_base<gmx::Grid, std::allocator<gmx::Grid>>::_Vector_impl" = type { %"struct.std::_Vector_base<gmx::Grid, std::allocator<gmx::Grid>>::_Vector_impl_data" }
%"struct.std::_Vector_base<gmx::Grid, std::allocator<gmx::Grid>>::_Vector_impl_data" = type { ptr, ptr, ptr }
%"struct.gmx::GridSetData" = type { %"class.std::vector.22", %"class.std::vector.22" }
%"class.std::vector.22" = type { %"struct.std::_Vector_base.23" }
%"struct.std::_Vector_base.23" = type { %"struct.std::_Vector_base<int, gmx::Allocator<int, gmx::HostAllocationPolicy>>::_Vector_impl" }
%"struct.std::_Vector_base<int, gmx::Allocator<int, gmx::HostAllocationPolicy>>::_Vector_impl" = type { %"class.gmx::Allocator.base", %"struct.std::_Vector_base<int, gmx::Allocator<int, gmx::HostAllocationPolicy>>::_Vector_impl_data" }
%"class.gmx::Allocator.base" = type { %"class.gmx::HostAllocationPolicy.base" }
%"class.gmx::HostAllocationPolicy.base" = type <{ i32, i8 }>
%"struct.std::_Vector_base<int, gmx::Allocator<int, gmx::HostAllocationPolicy>>::_Vector_impl_data" = type { ptr, ptr, ptr }
%"class.std::vector.24" = type { %"struct.std::_Vector_base.25" }
%"struct.std::_Vector_base.25" = type { %"struct.std::_Vector_base<gmx::GridWork, std::allocator<gmx::GridWork>>::_Vector_impl" }
%"struct.std::_Vector_base<gmx::GridWork, std::allocator<gmx::GridWork>>::_Vector_impl" = type { %"struct.std::_Vector_base<gmx::GridWork, std::allocator<gmx::GridWork>>::_Vector_impl_data" }
%"struct.std::_Vector_base<gmx::GridWork, std::allocator<gmx::GridWork>>::_Vector_impl_data" = type { ptr, ptr, ptr }
%"class.std::vector.29" = type { %"struct.std::_Vector_base.30" }
%"struct.std::_Vector_base.30" = type { %"struct.std::_Vector_base<gmx::PairsearchWork, std::allocator<gmx::PairsearchWork>>::_Vector_impl" }
%"struct.std::_Vector_base<gmx::PairsearchWork, std::allocator<gmx::PairsearchWork>>::_Vector_impl" = type { %"struct.std::_Vector_base<gmx::PairsearchWork, std::allocator<gmx::PairsearchWork>>::_Vector_impl_data" }
%"struct.std::_Vector_base<gmx::PairsearchWork, std::allocator<gmx::PairsearchWork>>::_Vector_impl_data" = type { ptr, ptr, ptr }

@.str.6 = private unnamed_addr constant [16 x i8] c"GMX_NBNXN_CYCLE\00", align 1

; Function Attrs: inlinehint mustprogress nounwind uwtable
define linkonce_odr void @_ZN3gmx13nbnxn_cycle_tC2Ev(ptr noundef nonnull align 8 dereferenceable(24) %0) unnamed_addr #7 comdat align 2 {
  %2 = alloca ptr, align 8
  store ptr %0, ptr %2, align 8, !tbaa !15
  %3 = load ptr, ptr %2, align 8
  %4 = getelementptr inbounds nuw %"class.gmx::nbnxn_cycle_t", ptr %3, i32 0, i32 0
  store i32 0, ptr %4, align 8, !tbaa !17
  %5 = getelementptr inbounds nuw %"class.gmx::nbnxn_cycle_t", ptr %3, i32 0, i32 1
  store i64 0, ptr %5, align 8, !tbaa !21
  %6 = getelementptr inbounds nuw %"class.gmx::nbnxn_cycle_t", ptr %3, i32 0, i32 2
  store i64 0, ptr %6, align 8, !tbaa !54
  ret void
}

; Function Attrs: mustprogress nounwind uwtable
define linkonce_odr void @_ZNSt15__new_allocatorIN3gmx14PairsearchWorkEEC2Ev(ptr noundef nonnull align 1 dereferenceable(1) %0) unnamed_addr #2 comdat align 2 {
  %2 = alloca ptr, align 8
  store ptr %0, ptr %2, align 8, !tbaa !208
  ret void
}

; Function Attrs: inlinehint mustprogress nounwind uwtable
define linkonce_odr void @_ZN3gmx19SearchCycleCountingC2Ev(ptr noundef nonnull align 8 dereferenceable(80) %0) unnamed_addr #7 comdat align 2 {
  %2 = alloca ptr, align 8
  store ptr %0, ptr %2, align 8, !tbaa !4
  %3 = load ptr, ptr %2, align 8
  %4 = getelementptr inbounds nuw %"struct.gmx::SearchCycleCounting", ptr %3, i32 0, i32 0
  store i8 0, ptr %4, align 8, !tbaa !210
  %5 = getelementptr inbounds nuw %"struct.gmx::SearchCycleCounting", ptr %3, i32 0, i32 1
  store i32 0, ptr %5, align 4, !tbaa !211
  %6 = getelementptr inbounds nuw %"struct.gmx::SearchCycleCounting", ptr %3, i32 0, i32 2
  %7 = getelementptr inbounds [3 x %"class.gmx::nbnxn_cycle_t"], ptr %6, i32 0, i32 0
  %8 = getelementptr inbounds %"class.gmx::nbnxn_cycle_t", ptr %7, i64 3
  br label %9

9:                                                ; preds = %9, %1
  %10 = phi ptr [ %7, %1 ], [ %11, %9 ]
  call void @_ZN3gmx13nbnxn_cycle_tC2Ev(ptr noundef nonnull align 8 dereferenceable(24) %10) #14
  %11 = getelementptr inbounds %"class.gmx::nbnxn_cycle_t", ptr %10, i64 1
  %12 = icmp eq ptr %11, %8
  br i1 %12, label %13, label %9

13:                                               ; preds = %9
  ret void
}

; Function Attrs: mustprogress nounwind uwtable
define linkonce_odr void @_ZNSt15__new_allocatorIN3gmx14PairsearchWorkEED2Ev(ptr noundef nonnull align 1 dereferenceable(1) %0) unnamed_addr #2 comdat align 2 {
  %2 = alloca ptr, align 8
  store ptr %0, ptr %2, align 8, !tbaa !208
  ret void
}

; Function Attrs: mustprogress nounwind uwtable
define linkonce_odr void @_ZNSaIN3gmx14PairsearchWorkEEC2Ev(ptr noundef nonnull align 1 dereferenceable(1) %0) unnamed_addr #2 comdat align 2 {
  %2 = alloca ptr, align 8
  store ptr %0, ptr %2, align 8, !tbaa !204
  %3 = load ptr, ptr %2, align 8
  call void @_ZNSt15__new_allocatorIN3gmx14PairsearchWorkEEC2Ev(ptr noundef nonnull align 1 dereferenceable(1) %3) #14
  ret void
}

; Function Attrs: mustprogress uwtable
define void @_ZN3gmx10PairSearchC2E7PbcTypebPKNS_11BasicVectorIiEEPKNS_11DomdecZonesENS_12PairlistTypeEbbiNS_13PinningPolicyE(ptr noundef nonnull align 8 dereferenceable(336) %0, i32 noundef %1, i1 noundef zeroext %2, ptr noundef %3, ptr noundef %4, i32 noundef %5, i1 noundef zeroext %6, i1 noundef zeroext %7, i32 noundef %8, i32 noundef %9) unnamed_addr #0 align 2 personality ptr @__gxx_personality_v0 {
  %11 = alloca ptr, align 8
  %12 = alloca i32, align 4
  %13 = alloca i8, align 1
  %14 = alloca ptr, align 8
  %15 = alloca ptr, align 8
  %16 = alloca i32, align 4
  %17 = alloca i8, align 1
  %18 = alloca i8, align 1
  %19 = alloca i32, align 4
  %20 = alloca i32, align 4
  %21 = alloca %"class.std::allocator.31", align 1
  %22 = alloca ptr, align 8
  %23 = alloca i32, align 4
  store ptr %0, ptr %11, align 8, !tbaa !163
  store i32 %1, ptr %12, align 4, !tbaa !165
  %24 = zext i1 %2 to i8
  store i8 %24, ptr %13, align 1, !tbaa !126
  store ptr %3, ptr %14, align 8, !tbaa !167
  store ptr %4, ptr %15, align 8, !tbaa !169
  store i32 %5, ptr %16, align 4, !tbaa !171
  %25 = zext i1 %6 to i8
  store i8 %25, ptr %17, align 1, !tbaa !126
  %26 = zext i1 %7 to i8
  store i8 %26, ptr %18, align 1, !tbaa !126
  store i32 %8, ptr %19, align 4, !tbaa !80
  store i32 %9, ptr %20, align 4, !tbaa !173
  %27 = load ptr, ptr %11, align 8
  %28 = getelementptr inbounds nuw %"class.gmx::PairSearch", ptr %27, i32 0, i32 0
  %29 = load i32, ptr %12, align 4, !tbaa !165
  %30 = load i8, ptr %13, align 1, !tbaa !126, !range !175, !noundef !176
  %31 = trunc i8 %30 to i1
  %32 = load ptr, ptr %14, align 8, !tbaa !167
  %33 = load ptr, ptr %15, align 8, !tbaa !169
  %34 = load i32, ptr %16, align 4, !tbaa !171
  %35 = load i8, ptr %17, align 1, !tbaa !126, !range !175, !noundef !176
  %36 = trunc i8 %35 to i1
  %37 = load i8, ptr %18, align 1, !tbaa !126, !range !175, !noundef !176
  %38 = trunc i8 %37 to i1
  %39 = load i32, ptr %19, align 4, !tbaa !80
  %40 = load i32, ptr %20, align 4, !tbaa !173
  call void @_ZN3gmx7GridSetC1E7PbcTypebPKNS_11BasicVectorIiEEPKNS_11DomdecZonesENS_12PairlistTypeEbbiNS_13PinningPolicyE(ptr noundef nonnull align 8 dereferenceable(232) %28, i32 noundef %29, i1 noundef zeroext %31, ptr noundef %32, ptr noundef %33, i32 noundef %34, i1 noundef zeroext %36, i1 noundef zeroext %38, i32 noundef %39, i32 noundef %40)
  %41 = getelementptr inbounds nuw %"class.gmx::PairSearch", ptr %27, i32 0, i32 1
  %42 = load i32, ptr %19, align 4, !tbaa !80
  %43 = sext i32 %42 to i64
  call void @llvm.lifetime.start.p0(i64 1, ptr %21) #14
  call void @_ZNSaIN3gmx14PairsearchWorkEEC2Ev(ptr noundef nonnull align 1 dereferenceable(1) %21) #14
  invoke void @_ZNSt6vectorIN3gmx14PairsearchWorkESaIS1_EEC2EmRKS2_(ptr noundef nonnull align 8 dereferenceable(24) %41, i64 noundef %43, ptr noundef nonnull align 1 dereferenceable(1) %21)
          to label %44 unwind label %51

44:                                               ; preds = %10
  call void @_ZNSt15__new_allocatorIN3gmx14PairsearchWorkEED2Ev(ptr noundef nonnull align 1 dereferenceable(1) %21) #14
  call void @llvm.lifetime.end.p0(i64 1, ptr %21) #14
  %45 = getelementptr inbounds nuw %"class.gmx::PairSearch", ptr %27, i32 0, i32 2
  call void @_ZN3gmx19SearchCycleCountingC2Ev(ptr noundef nonnull align 8 dereferenceable(80) %45) #14
  %46 = call ptr @getenv(ptr noundef @.str.6) #14
  %47 = icmp ne ptr %46, null
  %48 = getelementptr inbounds nuw %"class.gmx::PairSearch", ptr %27, i32 0, i32 2
  %49 = getelementptr inbounds nuw %"struct.gmx::SearchCycleCounting", ptr %48, i32 0, i32 0
  %50 = zext i1 %47 to i8
  store i8 %50, ptr %49, align 8, !tbaa !177
  ret void

51:                                               ; preds = %10
  %52 = landingpad { ptr, i32 }
          cleanup
  %53 = extractvalue { ptr, i32 } %52, 0
  store ptr %53, ptr %22, align 8
  %54 = extractvalue { ptr, i32 } %52, 1
  store i32 %54, ptr %23, align 4
  call void @_ZNSt15__new_allocatorIN3gmx14PairsearchWorkEED2Ev(ptr noundef nonnull align 1 dereferenceable(1) %21) #14
  call void @llvm.lifetime.end.p0(i64 1, ptr %21) #14
  call void @_ZN3gmx7GridSetD2Ev(ptr noundef nonnull align 8 dereferenceable(232) %28) #14
  br label %55

55:                                               ; preds = %51
  %56 = load ptr, ptr %22, align 8
  %57 = load i32, ptr %23, align 4
  %58 = insertvalue { ptr, i32 } poison, ptr %56, 0
  %59 = insertvalue { ptr, i32 } %58, i32 %57, 1
  resume { ptr, i32 } %59
}