; Function Attrs: mustprogress uwtable
define void @_ZN3gmx10PairSearchC2E7PbcTypebPKNS_11BasicVectorIiEEPKNS_11DomdecZonesENS_12PairlistTypeEbbiNS_13PinningPolicyE(ptr noundef nonnull align 8 dereferenceable(336) %0, i32 noundef %1, i1 noundef zeroext %2, ptr noundef %3, ptr noundef %4, i32 noundef %5, i1 noundef zeroext %6, i1 noundef zeroext %7, i32 noundef %8, i32 noundef %9) unnamed_addr #4 align 2 personality ptr @__gxx_personality_v0 {
  %11 = alloca %"class.std::allocator.31", align 1
  tail call void @_ZN3gmx7GridSetC1E7PbcTypebPKNS_11BasicVectorIiEEPKNS_11DomdecZonesENS_12PairlistTypeEbbiNS_13PinningPolicyE(ptr noundef nonnull align 8 dereferenceable(232) %0, i32 noundef %1, i1 noundef zeroext %2, ptr noundef %3, ptr noundef %4, i32 noundef %5, i1 noundef zeroext %6, i1 noundef zeroext %7, i32 noundef %8, i32 noundef %9)
  %12 = getelementptr inbounds nuw i8, ptr %0, i64 232
  %13 = sext i32 %8 to i64
  call void @llvm.lifetime.start.p0(i64 1, ptr nonnull %11) #20
  invoke void @_ZNSt6vectorIN3gmx14PairsearchWorkESaIS1_EEC2EmRKS2_(ptr noundef nonnull align 8 dereferenceable(24) %12, i64 noundef %13, ptr noundef nonnull align 1 dereferenceable(1) %11)
          to label %14 unwind label %23

14:                                               ; preds = %10
  call void @llvm.lifetime.end.p0(i64 1, ptr nonnull %11) #20
  %15 = getelementptr inbounds nuw i8, ptr %0, i64 256
  store i8 0, ptr %15, align 8, !tbaa !34
  %16 = getelementptr inbounds nuw i8, ptr %0, i64 260
  store i32 0, ptr %16, align 4, !tbaa !37
  br label %17

17:                                               ; preds = %17, %14
  %.idx.i = phi i64 [ 8, %14 ], [ %.add.i, %17 ]
  %.ptr.i = getelementptr inbounds nuw i8, ptr %15, i64 %.idx.i
  store i32 0, ptr %.ptr.i, align 8, !tbaa !4
  %18 = getelementptr inbounds nuw i8, ptr %.ptr.i, i64 8
  call void @llvm.memset.p0.i64(ptr noundef nonnull align 8 dereferenceable(16) %18, i8 0, i64 16, i1 false)
  %.add.i = add nuw nsw i64 %.idx.i, 24
  %19 = icmp eq i64 %.add.i, 80
  br i1 %19, label %_ZN3gmx19SearchCycleCountingC2Ev.exit, label %17

_ZN3gmx19SearchCycleCountingC2Ev.exit:            ; preds = %17
  %20 = call ptr @getenv(ptr noundef nonnull @.str.6) #20
  %21 = icmp ne ptr %20, null
  %22 = zext i1 %21 to i8
  store i8 %22, ptr %15, align 8, !tbaa !38
  ret void

23:                                               ; preds = %10
  %24 = landingpad { ptr, i32 }
          cleanup
  call void @llvm.lifetime.end.p0(i64 1, ptr nonnull %11) #20
  call void @_ZN3gmx7GridSetD2Ev(ptr noundef nonnull align 8 dereferenceable(232) %0) #20
  resume { ptr, i32 } %24
}